target datalayout = "e-m:e-p270:32:32-p271:32:32-p272:64:64-i64:64-i128:128-f80:128-n8:16:32:64-S128"
target triple = "x86_64-unknown-linux-gnu"

%class.b3Vector3 = type { %union.anon }
%union.anon = type { [4 x float] }
%struct.b3DynamicBvhBroadphase = type <{ ptr, [2 x %struct.b3DynamicBvh], [3 x ptr], %class.b3AlignedObjectArray.4, ptr, float, i32, i32, i32, i32, i32, i32, i32, i32, float, i32, i32, i8, i8, i8, [5 x i8] }>
%struct.b3DynamicBvh = type { ptr, ptr, i32, i32, i32, [4 x i8], %class.b3AlignedObjectArray, %class.b3AlignedObjectArray.0 }
%class.b3AlignedObjectArray = type <{ %class.b3AlignedAllocator, [3 x i8], i32, i32, [4 x i8], ptr, i8, [7 x i8] }>
%class.b3AlignedAllocator = type { i8 }
%class.b3AlignedObjectArray.0 = type <{ %class.b3AlignedAllocator.1, [3 x i8], i32, i32, [4 x i8], ptr, i8, [7 x i8] }>
%class.b3AlignedAllocator.1 = type { i8 }
%class.b3AlignedObjectArray.4 = type <{ %class.b3AlignedAllocator.5, [3 x i8], i32, i32, [4 x i8], ptr, i8, [7 x i8] }>
%class.b3AlignedAllocator.5 = type { i8 }
%"struct.b3DynamicBvh::ICollide" = type { ptr }
%struct.BroadphaseRayTester = type { %"struct.b3DynamicBvh::ICollide", ptr }
%struct.b3BroadphaseRayCallback = type { %struct.b3BroadphaseAabbCallback, [8 x i8], %class.b3Vector3, [3 x i32], float }
%struct.b3BroadphaseAabbCallback = type { ptr }

; Function Attrs: mustprogress nounwind uwtable
define linkonce_odr dso_local void @_ZN12b3DynamicBvh8ICollideD2Ev(ptr noundef nonnull align 8 dereferenceable(8) %this) unnamed_addr #3 comdat align 2 {
entry:
  %this.addr = alloca ptr, align 8
  store ptr %this, ptr %this.addr, align 8
  ret void
}

; Function Attrs: mustprogress nounwind uwtable
define linkonce_odr dso_local void @_ZN12b3DynamicBvh8ICollideC2Ev(ptr noundef nonnull align 8 dereferenceable(8) %this) unnamed_addr #3 comdat align 2 {
entry:
  %this.addr = alloca ptr, align 8
  store ptr %this, ptr %this.addr, align 8
  %this1 = load ptr, ptr %this.addr, align 8
  store ptr getelementptr inbounds ({ [9 x ptr] }, ptr @_ZTVN12b3DynamicBvh8ICollideE, i32 0, i32 0, i32 2), ptr %this1, align 8
  ret void
}

; Function Attrs: mustprogress nounwind uwtable
define linkonce_odr dso_local void @_ZN19BroadphaseRayTesterD2Ev(ptr noundef nonnull align 8 dereferenceable(16) %this) unnamed_addr #3 comdat align 2 {
entry:
  %this.addr = alloca ptr, align 8
  store ptr %this, ptr %this.addr, align 8
  %this1 = load ptr, ptr %this.addr, align 8
  call void @_ZN12b3DynamicBvh8ICollideD2Ev(ptr noundef nonnull align 8 dereferenceable(8) %this1) #9
  ret void
}

; Function Attrs: mustprogress nounwind uwtable
define linkonce_odr dso_local void @_ZN19BroadphaseRayTesterC2ER23b3BroadphaseRayCallback(ptr noundef nonnull align 8 dereferenceable(16) %this, ptr noundef nonnull align 16 dereferenceable(48) %orgCallback) unnamed_addr #3 comdat align 2 {
entry:
  %this.addr = alloca ptr, align 8
  %orgCallback.addr = alloca ptr, align 8
  store ptr %this, ptr %this.addr, align 8
  store ptr %orgCallback, ptr %orgCallback.addr, align 8
  %this1 = load ptr, ptr %this.addr, align 8
  call void @_ZN12b3DynamicBvh8ICollideC2Ev(ptr noundef nonnull align 8 dereferenceable(8) %this1) #9
  store ptr getelementptr inbounds ({ [9 x ptr] }, ptr @_ZTV19BroadphaseRayTester, i32 0, i32 0, i32 2), ptr %this1, align 8
  %m_rayCallback = getelementptr inbounds %struct.BroadphaseRayTester, ptr %this1, i32 0, i32 1
  %0 = load ptr, ptr %orgCallback.addr, align 8
  store ptr %0, ptr %m_rayCallback, align 8
  ret void
}

; Function Attrs: mustprogress uwtable
define dso_local void @_ZN22b3DynamicBvhBroadphase7rayTestERK9b3Vector3S2_R23b3BroadphaseRayCallbackS2_S2_(ptr noundef nonnull align 8 dereferenceable(315) %this, ptr noundef nonnull align 16 dereferenceable(16) %rayFrom, ptr noundef nonnull align 16 dereferenceable(16) %rayTo, ptr noundef nonnull align 16 dereferenceable(48) %rayCallback, ptr noundef nonnull align 16 dereferenceable(16) %aabbMin, ptr noundef nonnull align 16 dereferenceable(16) %aabbMax) unnamed_addr #0 align 2 personality ptr @__gxx_personality_v0 {
entry:
  %this.addr = alloca ptr, align 8
  %rayFrom.addr = alloca ptr, align 8
  %rayTo.addr = alloca ptr, align 8
  %rayCallback.addr = alloca ptr, align 8
  %aabbMin.addr = alloca ptr, align 8
  %aabbMax.addr = alloca ptr, align 8
  %callback = alloca %struct.BroadphaseRayTester, align 8
  %exn.slot = alloca ptr, align 8
  %ehselector.slot = alloca i32, align 4
  store ptr %this, ptr %this.addr, align 8
  store ptr %rayFrom, ptr %rayFrom.addr, align 8
  store ptr %rayTo, ptr %rayTo.addr, align 8
  store ptr %rayCallback, ptr %rayCallback.addr, align 8
  store ptr %aabbMin, ptr %aabbMin.addr, align 8
  store ptr %aabbMax, ptr %aabbMax.addr, align 8
  %this1 = load ptr, ptr %this.addr, align 8
  %0 = load ptr, ptr %rayCallback.addr, align 8
  call void @_ZN19BroadphaseRayTesterC2ER23b3BroadphaseRayCallback(ptr noundef nonnull align 8 dereferenceable(16) %callback, ptr noundef nonnull align 16 dereferenceable(48) %0)
  %m_sets = getelementptr inbounds %struct.b3DynamicBvhBroadphase, ptr %this1, i32 0, i32 1
  %arrayidx = getelementptr inbounds [2 x %struct.b3DynamicBvh], ptr %m_sets, i64 0, i64 0
  %m_sets2 = getelementptr inbounds %struct.b3DynamicBvhBroadphase, ptr %this1, i32 0, i32 1
  %arrayidx3 = getelementptr inbounds [2 x %struct.b3DynamicBvh], ptr %m_sets2, i64 0, i64 0
  %m_root = getelementptr inbounds %struct.b3DynamicBvh, ptr %arrayidx3, i32 0, i32 0
  %1 = load ptr, ptr %m_root, align 8
  %2 = load ptr, ptr %rayFrom.addr, align 8
  %3 = load ptr, ptr %rayTo.addr, align 8
  %4 = load ptr, ptr %rayCallback.addr, align 8
  %m_rayDirectionInverse = getelementptr inbounds %struct.b3BroadphaseRayCallback, ptr %4, i32 0, i32 2
  %5 = load ptr, ptr %rayCallback.addr, align 8
  %m_signs = getelementptr inbounds %struct.b3BroadphaseRayCallback, ptr %5, i32 0, i32 3
  %arraydecay = getelementptr inbounds [3 x i32], ptr %m_signs, i64 0, i64 0
  %6 = load ptr, ptr %rayCallback.addr, align 8
  %m_lambda_max = getelementptr inbounds %struct.b3BroadphaseRayCallback, ptr %6, i32 0, i32 4
  %7 = load float, ptr %m_lambda_max, align 4
  %8 = load ptr, ptr %aabbMin.addr, align 8
  %9 = load ptr, ptr %aabbMax.addr, align 8
  invoke void @_ZNK12b3DynamicBvh15rayTestInternalEPK10b3DbvtNodeRK9b3Vector3S5_S5_PjfS5_S5_RNS_8ICollideE(ptr noundef nonnull align 8 dereferenceable(96) %arrayidx, ptr noundef %1, ptr noundef nonnull align 16 dereferenceable(16) %2, ptr noundef nonnull align 16 dereferenceable(16) %3, ptr noundef nonnull align 16 dereferenceable(16) %m_rayDirectionInverse, ptr noundef %arraydecay, float noundef %7, ptr noundef nonnull align 16 dereferenceable(16) %8, ptr noundef nonnull align 16 dereferenceable(16) %9, ptr noundef nonnull align 8 dereferenceable(8) %callback)
          to label %invoke.cont unwind label %lpad

invoke.cont:                                      ; preds = %entry
  %m_sets4 = getelementptr inbounds %struct.b3DynamicBvhBroadphase, ptr %this1, i32 0, i32 1
  %arrayidx5 = getelementptr inbounds [2 x %struct.b3DynamicBvh], ptr %m_sets4, i64 0, i64 1
  %m_sets6 = getelementptr inbounds %struct.b3DynamicBvhBroadphase, ptr %this1, i32 0, i32 1
  %arrayidx7 = getelementptr inbounds [2 x %struct.b3DynamicBvh], ptr %m_sets6, i64 0, i64 1
  %m_root8 = getelementptr inbounds %struct.b3DynamicBvh, ptr %arrayidx7, i32 0, i32 0
  %10 = load ptr, ptr %m_root8, align 8
  %11 = load ptr, ptr %rayFrom.addr, align 8
  %12 = load ptr, ptr %rayTo.addr, align 8
  %13 = load ptr, ptr %rayCallback.addr, align 8
  %m_rayDirectionInverse9 = getelementptr inbounds %struct.b3BroadphaseRayCallback, ptr %13, i32 0, i32 2
  %14 = load ptr, ptr %rayCallback.addr, align 8
  %m_signs10 = getelementptr inbounds %struct.b3BroadphaseRayCallback, ptr %14, i32 0, i32 3
  %arraydecay11 = getelementptr inbounds [3 x i32], ptr %m_signs10, i64 0, i64 0
  %15 = load ptr, ptr %rayCallback.addr, align 8
  %m_lambda_max12 = getelementptr inbounds %struct.b3BroadphaseRayCallback, ptr %15, i32 0, i32 4
  %16 = load float, ptr %m_lambda_max12, align 4
  %17 = load ptr, ptr %aabbMin.addr, align 8
  %18 = load ptr, ptr %aabbMax.addr, align 8
  invoke void @_ZNK12b3DynamicBvh15rayTestInternalEPK10b3DbvtNodeRK9b3Vector3S5_S5_PjfS5_S5_RNS_8ICollideE(ptr noundef nonnull align 8 dereferenceable(96) %arrayidx5, ptr noundef %10, ptr noundef nonnull align 16 dereferenceable(16) %11, ptr noundef nonnull align 16 dereferenceable(16) %12, ptr noundef nonnull align 16 dereferenceable(16) %m_rayDirectionInverse9, ptr noundef %arraydecay11, float noundef %16, ptr noundef nonnull align 16 dereferenceable(16) %17, ptr noundef nonnull align 16 dereferenceable(16) %18, ptr noundef nonnull align 8 dereferenceable(8) %callback)
          to label %invoke.cont13 unwind label %lpad

invoke.cont13:                                    ; preds = %invoke.cont
  call void @_ZN19BroadphaseRayTesterD2Ev(ptr noundef nonnull align 8 dereferenceable(16) %callback) #9
  ret void

lpad:                                             ; preds = %invoke.cont, %entry
  %19 = landingpad { ptr, i32 }
          cleanup
  %20 = extractvalue { ptr, i32 } %19, 0
  store ptr %20, ptr %exn.slot, align 8
  %21 = extractvalue { ptr, i32 } %19, 1
  store i32 %21, ptr %ehselector.slot, align 4
  call void @_ZN19BroadphaseRayTesterD2Ev(ptr noundef nonnull align 8 dereferenceable(16) %callback) #9
  br label %eh.resume

eh.resume:                                        ; preds = %lpad
  %exn = load ptr, ptr %exn.slot, align 8
  %sel = load i32, ptr %ehselector.slot, align 4
  %lpad.val = insertvalue { ptr, i32 } poison, ptr %exn, 0
  %lpad.val14 = insertvalue { ptr, i32 } %lpad.val, i32 %sel, 1
  resume { ptr, i32 } %lpad.val14
}