; Function Attrs: mustprogress uwtable
define dso_local void @_ZN22b3DynamicBvhBroadphase7rayTestERK9b3Vector3S2_R23b3BroadphaseRayCallbackS2_S2_(ptr noundef nonnull align 8 dereferenceable(315) %this, ptr noundef nonnull align 16 dereferenceable(16) %rayFrom, ptr noundef nonnull align 16 dereferenceable(16) %rayTo, ptr noundef nonnull align 16 dereferenceable(48) %rayCallback, ptr noundef nonnull align 16 dereferenceable(16) %aabbMin, ptr noundef nonnull align 16 dereferenceable(16) %aabbMax) unnamed_addr #0 align 2 personality ptr @__gxx_personality_v0 {
entry:
  %callback = alloca %struct.BroadphaseRayTester, align 8
  store ptr getelementptr inbounds ({ [9 x ptr] }, ptr @_ZTV19BroadphaseRayTester, i64 0, i32 0, i64 2), ptr %callback, align 8
  %m_rayCallback.i = getelementptr inbounds i8, ptr %callback, i64 8
  store ptr %rayCallback, ptr %m_rayCallback.i, align 8
  %m_sets = getelementptr inbounds i8, ptr %this, i64 8
  %0 = load ptr, ptr %m_sets, align 8
  %m_rayDirectionInverse = getelementptr inbounds i8, ptr %rayCallback, i64 16
  %m_signs = getelementptr inbounds i8, ptr %rayCallback, i64 32
  %m_lambda_max = getelementptr inbounds i8, ptr %rayCallback, i64 44
  %1 = load float, ptr %m_lambda_max, align 4
  call void @_ZNK12b3DynamicBvh15rayTestInternalEPK10b3DbvtNodeRK9b3Vector3S5_S5_PjfS5_S5_RNS_8ICollideE(ptr noundef nonnull align 8 dereferenceable(96) %m_sets, ptr noundef %0, ptr noundef nonnull align 16 dereferenceable(16) %rayFrom, ptr noundef nonnull align 16 dereferenceable(16) %rayTo, ptr noundef nonnull align 16 dereferenceable(16) %m_rayDirectionInverse, ptr noundef nonnull %m_signs, float noundef %1, ptr noundef nonnull align 16 dereferenceable(16) %aabbMin, ptr noundef nonnull align 16 dereferenceable(16) %aabbMax, ptr noundef nonnull align 8 dereferenceable(8) %callback)
  %arrayidx5 = getelementptr inbounds i8, ptr %this, i64 104
  %2 = load ptr, ptr %arrayidx5, align 8
  %3 = load float, ptr %m_lambda_max, align 4
  call void @_ZNK12b3DynamicBvh15rayTestInternalEPK10b3DbvtNodeRK9b3Vector3S5_S5_PjfS5_S5_RNS_8ICollideE(ptr noundef nonnull align 8 dereferenceable(96) %arrayidx5, ptr noundef %2, ptr noundef nonnull align 16 dereferenceable(16) %rayFrom, ptr noundef nonnull align 16 dereferenceable(16) %rayTo, ptr noundef nonnull align 16 dereferenceable(16) %m_rayDirectionInverse, ptr noundef nonnull %m_signs, float noundef %3, ptr noundef nonnull align 16 dereferenceable(16) %aabbMin, ptr noundef nonnull align 16 dereferenceable(16) %aabbMax, ptr noundef nonnull align 8 dereferenceable(8) %callback)
  ret void
}